(lp0
(S'2003'
p1
S'1411'
p2
S'1421'
p3
I0
tp4
a(S'2003'
p5
S'1112'
p6
S'1436'
p7
I1
tp8
a(S'2003'
p9
S'1113'
p10
S'1272'
p11
I1
tp12
a(S'2003'
p13
S'1141'
p14
S'1166'
p15
I1
tp16
a(S'2003'
p17
S'1143'
p18
S'1301'
p19
I1
tp20
a(S'2003'
p21
S'1163'
p22
S'1140'
p23
I1
tp24
a(S'2003'
p25
S'1181'
p26
S'1161'
p27
I1
tp28
a(S'2003'
p29
S'1211'
p30
S'1153'
p31
I1
tp32
a(S'2003'
p33
S'1443'
p34
S'1228'
p35
I0
tp36
a(S'2003'
p37
S'1242'
p38
S'1429'
p39
I1
tp40
a(S'2003'
p41
S'1221'
p42
S'1266'
p43
I0
tp44
a(S'2003'
p45
S'1281'
p46
S'1356'
p47
I1
tp48
a(S'2003'
p49
S'1454'
p50
S'1323'
p51
I0
tp52
a(S'2003'
p53
S'1328'
p54
S'1354'
p55
I1
tp56
a(S'2003'
p57
S'1390'
p58
S'1360'
p59
I1
tp60
a(S'2003'
p61
S'1173'
p62
S'1409'
p63
I0
tp64
a(S'2003'
p65
S'1451'
p66
S'1458'
p67
I0
tp68
a(S'2003'
p69
S'1120'
p70
S'1386'
p71
I1
tp72
a(S'2003'
p73
S'1139'
p74
S'1280'
p75
I1
tp76
a(S'2003'
p77
S'1358'
p78
S'1196'
p79
I0
tp80
a(S'2003'
p81
S'1104'
p82
S'1231'
p83
I0
tp84
a(S'2003'
p85
S'1246'
p86
S'1237'
p87
I1
tp88
a(S'2003'
p89
S'1122'
p90
S'1257'
p91
I0
tp92
a(S'2003'
p93
S'1423'
p94
S'1268'
p95
I0
tp96
a(S'2003'
p97
S'1277'
p98
S'1160'
p99
I1
tp100
a(S'2003'
p101
S'1335'
p102
S'1329'
p103
I0
tp104
a(S'2003'
p105
S'1447'
p106
S'1338'
p107
I0
tp108
a(S'2003'
p109
S'1261'
p110
S'1345'
p111
I0
tp112
a(S'2003'
p113
S'1393'
p114
S'1264'
p115
I1
tp116
a(S'2003'
p117
S'1400'
p118
S'1421'
p119
I1
tp120
a(S'2003'
p121
S'1428'
p122
S'1332'
p123
I1
tp124
a(S'2003'
p125
S'1448'
p126
S'1190'
p127
I1
tp128
a(S'2003'
p129
S'1462'
p130
S'1407'
p131
I1
tp132
a(S'2003'
p133
S'1112'
p134
S'1211'
p135
I1
tp136
a(S'2003'
p137
S'1390'
p138
S'1163'
p139
I0
tp140
a(S'2003'
p141
S'1181'
p142
S'1141'
p143
I1
tp144
a(S'2003'
p145
S'1113'
p146
S'1242'
p147
I0
tp148
a(S'2003'
p149
S'1266'
p150
S'1281'
p151
I1
tp152
a(S'2003'
p153
S'1323'
p154
S'1228'
p155
I1
tp156
a(S'2003'
p157
S'1143'
p158
S'1328'
p159
I0
tp160
a(S'2003'
p161
S'1409'
p162
S'1458'
p163
I0
tp164
a(S'2003'
p165
S'1448'
p166
S'1120'
p167
I0
tp168
a(S'2003'
p169
S'1257'
p170
S'1139'
p171
I0
tp172
a(S'2003'
p173
S'1428'
p174
S'1246'
p175
I0
tp176
a(S'2003'
p177
S'1462'
p178
S'1268'
p179
I0
tp180
a(S'2003'
p181
S'1196'
p182
S'1277'
p183
I0
tp184
a(S'2003'
p185
S'1231'
p186
S'1338'
p187
I0
tp188
a(S'2003'
p189
S'1393'
p190
S'1329'
p191
I1
tp192
a(S'2003'
p193
S'1345'
p194
S'1400'
p195
I0
tp196
a(S'2003'
p197
S'1112'
p198
S'1323'
p199
I1
tp200
a(S'2003'
p201
S'1181'
p202
S'1242'
p203
I0
tp204
a(S'2003'
p205
S'1246'
p206
S'1458'
p207
I1
tp208
a(S'2003'
p209
S'1338'
p210
S'1266'
p211
I0
tp212
a(S'2003'
p213
S'1268'
p214
S'1277'
p215
I0
tp216
a(S'2003'
p217
S'1139'
p218
S'1328'
p219
I0
tp220
a(S'2003'
p221
S'1393'
p222
S'1120'
p223
I1
tp224
a(S'2003'
p225
S'1163'
p226
S'1400'
p227
I0
tp228
a(S'2003'
p229
S'1112'
p230
S'1242'
p231
I0
tp232
a(S'2003'
p233
S'1246'
p234
S'1266'
p235
I0
tp236
a(S'2003'
p237
S'1393'
p238
S'1328'
p239
I1
tp240
a(S'2003'
p241
S'1277'
p242
S'1400'
p243
I0
tp244
a(S'2003'
p245
S'1266'
p246
S'1242'
p247
I0
tp248
a(S'2003'
p249
S'1400'
p250
S'1393'
p251
I0
tp252
a(S'2003'
p253
S'1242'
p254
S'1393'
p255
I0
tp256
a(S'2004'
p257
S'1197'
p258
S'1250'
p259
I1
tp260
a(S'2004'
p261
S'1104'
p262
S'1356'
p263
I1
tp264
a(S'2004'
p265
S'1163'
p266
S'1436'
p267
I1
tp268
a(S'2004'
p269
S'1177'
p270
S'1173'
p271
I1
tp272
a(S'2004'
p273
S'1181'
p274
S'1106'
p275
I1
tp276
a(S'2004'
p277
S'1434'
p278
S'1211'
p279
I0
tp280
a(S'2004'
p281
S'1264'
p282
S'1196'
p283
I1
tp284
a(S'2004'
p285
S'1431'
p286
S'1268'
p287
I0
tp288
a(S'2004'
p289
S'1277'
p290
S'1305'
p291
I0
tp292
a(S'2004'
p293
S'1314'
p294
S'1102'
p295
I1
tp296
a(S'2004'
p297
S'1112'
p298
S'1371'
p299
I0
tp300
a(S'2004'
p301
S'1386'
p302
S'1251'
p303
I1
tp304
a(S'2004'
p305
S'1427'
p306
S'1390'
p307
I0
tp308
a(S'2004'
p309
S'1393'
p310
S'1140'
p311
I1
tp312
a(S'2004'
p313
S'1400'
p314
S'1343'
p315
I1
tp316
a(S'2004'
p317
S'1403'
p318
S'1150'
p319
I1
tp320
a(S'2004'
p321
S'1448'
p322
S'1433'
p323
I1
tp324
a(S'2004'
p325
S'1428'
p326
S'1130'
p327
I0
tp328
a(S'2004'
p329
S'1190'
p330
S'1153'
p331
I0
tp332
a(S'2004'
p333
S'1320'
p334
S'1210'
p335
I0
tp336
a(S'2004'
p337
S'1293'
p338
S'1228'
p339
I0
tp340
a(S'2004'
p341
S'1242'
p342
S'1227'
p343
I1
tp344
a(S'2004'
p345
S'1197'
p346
S'1246'
p347
I0
tp348
a(S'2004'
p349
S'1272'
p350
S'1376'
p351
I1
tp352
a(S'2004'
p353
S'1280'
p354
S'1284'
p355
I1
tp356
a(S'2004'
p357
S'1301'
p358
S'1418'
p359
I1
tp360
a(S'2004'
p361
S'1186'
p362
S'1329'
p363
I0
tp364
a(S'2004'
p365
S'1334'
p366
S'1344'
p367
I1
tp368
a(S'2004'
p369
S'1338'
p370
S'1416'
p371
I1
tp372
a(S'2004'
p373
S'1412'
p374
S'1449'
p375
I1
tp376
a(S'2004'
p377
S'1444'
p378
S'1435'
p379
I0
tp380
a(S'2004'
p381
S'1458'
p382
S'1350'
p383
I1
tp384
a(S'2004'
p385
S'1462'
p386
S'1257'
p387
I1
tp388
a(S'2004'
p389
S'1390'
p390
S'1104'
p391
I0
tp392
a(S'2004'
p393
S'1163'
p394
S'1177'
p395
I1
tp396
a(S'2004'
p397
S'1371'
p398
S'1181'
p399
I0
tp400
a(S'2004'
p401
S'1211'
p402
S'1305'
p403
I0
tp404
a(S'2004'
p405
S'1386'
p406
S'1403'
p407
I1
tp408
a(S'2004'
p409
S'1268'
p410
S'1393'
p411
I0
tp412
a(S'2004'
p413
S'1314'
p414
S'1400'
p415
I0
tp416
a(S'2004'
p417
S'1448'
p418
S'1264'
p419
I1
tp420
a(S'2004'
p421
S'1130'
p422
S'1210'
p423
I0
tp424
a(S'2004'
p425
S'1228'
p426
S'1153'
p427
I1
tp428
a(S'2004'
p429
S'1334'
p430
S'1242'
p431
I0
tp432
a(S'2004'
p433
S'1329'
p434
S'1272'
p435
I1
tp436
a(S'2004'
p437
S'1338'
p438
S'1458'
p439
I1
tp440
a(S'2004'
p441
S'1412'
p442
S'1246'
p443
I1
tp444
a(S'2004'
p445
S'1301'
p446
S'1435'
p447
I0
tp448
a(S'2004'
p449
S'1280'
p450
S'1462'
p451
I0
tp452
a(S'2004'
p453
S'1104'
p454
S'1393'
p455
I1
tp456
a(S'2004'
p457
S'1435'
p458
S'1163'
p459
I0
tp460
a(S'2004'
p461
S'1329'
p462
S'1338'
p463
I1
tp464
a(S'2004'
p465
S'1448'
p466
S'1386'
p467
I0
tp468
a(S'2004'
p469
S'1181'
p470
S'1228'
p471
I1
tp472
a(S'2004'
p473
S'1210'
p474
S'1305'
p475
I1
tp476
a(S'2004'
p477
S'1242'
p478
S'1412'
p479
I1
tp480
a(S'2004'
p481
S'1400'
p482
S'1462'
p483
I0
tp484
a(S'2004'
p485
S'1104'
p486
S'1163'
p487
I0
tp488
a(S'2004'
p489
S'1329'
p490
S'1386'
p491
I1
tp492
a(S'2004'
p493
S'1181'
p494
S'1462'
p495
I1
tp496
a(S'2004'
p497
S'1242'
p498
S'1210'
p499
I0
tp500
a(S'2004'
p501
S'1181'
p502
S'1163'
p503
I0
tp504
a(S'2004'
p505
S'1210'
p506
S'1329'
p507
I1
tp508
a(S'2004'
p509
S'1163'
p510
S'1210'
p511
I1
tp512
a(S'2005'
p513
S'1105'
p514
S'1324'
p515
I0
tp516
a(S'2005'
p517
S'1429'
p518
S'1112'
p519
I0
tp520
a(S'2005'
p521
S'1130'
p522
S'1335'
p523
I1
tp524
a(S'2005'
p525
S'1234'
p526
S'1153'
p527
I0
tp528
a(S'2005'
p529
S'1457'
p530
S'1211'
p531
I0
tp532
a(S'2005'
p533
S'1228'
p534
S'1192'
p535
I1
tp536
a(S'2005'
p537
S'1184'
p538
S'1246'
p539
I0
tp540
a(S'2005'
p541
S'1305'
p542
S'1400'
p543
I1
tp544
a(S'2005'
p545
S'1310'
p546
S'1328'
p547
I0
tp548
a(S'2005'
p549
S'1334'
p550
S'1338'
p551
I1
tp552
a(S'2005'
p553
S'1403'
p554
S'1417'
p555
I1
tp556
a(S'2005'
p557
S'1412'
p558
S'1261'
p559
I1
tp560
a(S'2005'
p561
S'1428'
p562
S'1431'
p563
I1
tp564
a(S'2005'
p565
S'1448'
p566
S'1151'
p567
I1
tp568
a(S'2005'
p569
S'1449'
p570
S'1285'
p571
I1
tp572
a(S'2005'
p573
S'1452'
p574
S'1166'
p575
I1
tp576
a(S'2005'
p577
S'1454'
p578
S'1104'
p579
I1
tp580
a(S'2005'
p581
S'1137'
p582
S'1242'
p583
I1
tp584
a(S'2005'
p585
S'1416'
p586
S'1163'
p587
I0
tp588
a(S'2005'
p589
S'1181'
p590
S'1175'
p591
I1
tp592
a(S'2005'
p593
S'1196'
p594
S'1325'
p595
I1
tp596
a(S'2005'
p597
S'1203'
p598
S'1210'
p599
I0
tp600
a(S'2005'
p601
S'1278'
p602
S'1235'
p603
I0
tp604
a(S'2005'
p605
S'1257'
p606
S'1418'
p607
I1
tp608
a(S'2005'
p609
S'1330'
p610
S'1277'
p611
I0
tp612
a(S'2005'
p613
S'1390'
p614
S'1280'
p615
I0
tp616
a(S'2005'
p617
S'1150'
p618
S'1301'
p619
I0
tp620
a(S'2005'
p621
S'1324'
p622
S'1314'
p623
I0
tp624
a(S'2005'
p625
S'1368'
p626
S'1329'
p627
I0
tp628
a(S'2005'
p629
S'1356'
p630
S'1388'
p631
I1
tp632
a(S'2005'
p633
S'1436'
p634
S'1393'
p635
I1
tp636
a(S'2005'
p637
S'1437'
p638
S'1307'
p639
I1
tp640
a(S'2005'
p641
S'1458'
p642
S'1320'
p643
I1
tp644
a(S'2005'
p645
S'1412'
p646
S'1112'
p647
I0
tp648
a(S'2005'
p649
S'1228'
p650
S'1305'
p651
I1
tp652
a(S'2005'
p653
S'1246'
p654
S'1153'
p655
I1
tp656
a(S'2005'
p657
S'1403'
p658
S'1211'
p659
I1
tp660
a(S'2005'
p661
S'1428'
p662
S'1328'
p663
I1
tp664
a(S'2005'
p665
S'1449'
p666
S'1334'
p667
I1
tp668
a(S'2005'
p669
S'1452'
p670
S'1448'
p671
I1
tp672
a(S'2005'
p673
S'1130'
p674
S'1454'
p675
I0
tp676
a(S'2005'
p677
S'1181'
p678
S'1280'
p679
I1
tp680
a(S'2005'
p681
S'1257'
p682
S'1210'
p683
I1
tp684
a(S'2005'
p685
S'1277'
p686
S'1436'
p687
I1
tp688
a(S'2005'
p689
S'1163'
p690
S'1301'
p691
I0
tp692
a(S'2005'
p693
S'1314'
p694
S'1235'
p695
I1
tp696
a(S'2005'
p697
S'1356'
p698
S'1329'
p699
I0
tp700
a(S'2005'
p701
S'1437'
p702
S'1196'
p703
I1
tp704
a(S'2005'
p705
S'1458'
p706
S'1137'
p707
I1
tp708
a(S'2005'
p709
S'1112'
p710
S'1329'
p711
I1
tp712
a(S'2005'
p713
S'1228'
p714
S'1454'
p715
I1
tp716
a(S'2005'
p717
S'1449'
p718
S'1257'
p719
I0
tp720
a(S'2005'
p721
S'1403'
p722
S'1452'
p723
I0
tp724
a(S'2005'
p725
S'1246'
p726
S'1428'
p727
I1
tp728
a(S'2005'
p729
S'1277'
p730
S'1181'
p731
I1
tp732
a(S'2005'
p733
S'1437'
p734
S'1314'
p735
I0
tp736
a(S'2005'
p737
S'1301'
p738
S'1458'
p739
I0
tp740
a(S'2005'
p741
S'1112'
p742
S'1228'
p743
I0
tp744
a(S'2005'
p745
S'1452'
p746
S'1257'
p747
I0
tp748
a(S'2005'
p749
S'1246'
p750
S'1277'
p751
I0
tp752
a(S'2005'
p753
S'1458'
p754
S'1314'
p755
I0
tp756
a(S'2005'
p757
S'1257'
p758
S'1228'
p759
I0
tp760
a(S'2005'
p761
S'1314'
p762
S'1277'
p763
I1
tp764
a(S'2005'
p765
S'1228'
p766
S'1314'
p767
I0
tp768
a(S'2006'
p769
S'1214'
p770
S'1284'
p771
I0
tp772
a(S'2006'
p773
S'1266'
p774
S'1104'
p775
I0
tp776
a(S'2006'
p777
S'1334'
p778
S'1130'
p779
I0
tp780
a(S'2006'
p781
S'1181'
p782
S'1380'
p783
I1
tp784
a(S'2006'
p785
S'1375'
p786
S'1196'
p787
I0
tp788
a(S'2006'
p789
S'1423'
p790
S'1203'
p791
I0
tp792
a(S'2006'
p793
S'1462'
p794
S'1211'
p795
I0
tp796
a(S'2006'
p797
S'1102'
p798
S'1228'
p799
I0
tp800
a(S'2006'
p801
S'1361'
p802
S'1231'
p803
I0
tp804
a(S'2006'
p805
S'1261'
p806
S'1233'
p807
I1
tp808
a(S'2006'
p809
S'1285'
p810
S'1305'
p811
I1
tp812
a(S'2006'
p813
S'1397'
p814
S'1457'
p815
I1
tp816
a(S'2006'
p817
S'1401'
p818
S'1393'
p819
I1
tp820
a(S'2006'
p821
S'1125'
p822
S'1417'
p823
I0
tp824
a(S'2006'
p825
S'1429'
p826
S'1449'
p827
I0
tp828
a(S'2006'
p829
S'1454'
p830
S'1328'
p831
I1
tp832
a(S'2006'
p833
S'1371'
p834
S'1455'
p835
I0
tp836
a(S'2006'
p837
S'1112'
p838
S'1458'
p839
I1
tp840
a(S'2006'
p841
S'1242'
p842
S'1133'
p843
I0
tp844
a(S'2006'
p845
S'1116'
p846
S'1137'
p847
I0
tp848
a(S'2006'
p849
S'1107'
p850
S'1163'
p851
I0
tp852
a(S'2006'
p853
S'1277'
p854
S'1206'
p855
I0
tp856
a(S'2006'
p857
S'1320'
p858
S'1207'
p859
I0
tp860
a(S'2006'
p861
S'1412'
p862
S'1246'
p863
I0
tp864
a(S'2006'
p865
S'1272'
p866
S'1331'
p867
I1
tp868
a(S'2006'
p869
S'1143'
p870
S'1301'
p871
I0
tp872
a(S'2006'
p873
S'1314'
p874
S'1293'
p875
I1
tp876
a(S'2006'
p877
S'1322'
p878
S'1234'
p879
I1
tp880
a(S'2006'
p881
S'1326'
p882
S'1172'
p883
I1
tp884
a(S'2006'
p885
S'1338'
p886
S'1245'
p887
I1
tp888
a(S'2006'
p889
S'1400'
p890
S'1335'
p891
I1
tp892
a(S'2006'
p893
S'1437'
p894
S'1284'
p895
I1
tp896
a(S'2006'
p897
S'1356'
p898
S'1452'
p899
I0
tp900
a(S'2006'
p901
S'1130'
p902
S'1285'
p903
I1
tp904
a(S'2006'
p905
S'1181'
p906
S'1203'
p907
I1
tp908
a(S'2006'
p909
S'1196'
p910
S'1454'
p911
I1
tp912
a(S'2006'
p913
S'1231'
p914
S'1211'
p915
I0
tp916
a(S'2006'
p917
S'1401'
p918
S'1261'
p919
I0
tp920
a(S'2006'
p921
S'1417'
p922
S'1104'
p923
I1
tp924
a(S'2006'
p925
S'1449'
p926
S'1228'
p927
I1
tp928
a(S'2006'
p929
S'1397'
p930
S'1455'
p931
I0
tp932
a(S'2006'
p933
S'1338'
p934
S'1133'
p935
I0
tp936
a(S'2006'
p937
S'1163'
p938
S'1246'
p939
I1
tp940
a(S'2006'
p941
S'1314'
p942
S'1206'
p943
I0
tp944
a(S'2006'
p945
S'1326'
p946
S'1207'
p947
I0
tp948
a(S'2006'
p949
S'1137'
p950
S'1272'
p951
I0
tp952
a(S'2006'
p953
S'1301'
p954
S'1400'
p955
I0
tp956
a(S'2006'
p957
S'1112'
p958
S'1437'
p959
I0
tp960
a(S'2006'
p961
S'1452'
p962
S'1322'
p963
I1
tp964
a(S'2006'
p965
S'1261'
p966
S'1181'
p967
I1
tp968
a(S'2006'
p969
S'1272'
p970
S'1133'
p971
I1
tp972
a(S'2006'
p973
S'1452'
p974
S'1400'
p975
I0
tp976
a(S'2006'
p977
S'1417'
p978
S'1211'
p979
I1
tp980
a(S'2006'
p981
S'1163'
p982
S'1449'
p983
I1
tp984
a(S'2006'
p985
S'1207'
p986
S'1196'
p987
I0
tp988
a(S'2006'
p989
S'1206'
p990
S'1455'
p991
I1
tp992
a(S'2006'
p993
S'1130'
p994
S'1437'
p995
I0
tp996
a(S'2006'
p997
S'1261'
p998
S'1400'
p999
I1
tp1000
a(S'2006'
p1001
S'1417'
p1002
S'1272'
p1003
I1
tp1004
a(S'2006'
p1005
S'1196'
p1006
S'1437'
p1007
I1
tp1008
a(S'2006'
p1009
S'1163'
p1010
S'1206'
p1011
I0
tp1012
a(S'2006'
p1013
S'1206'
p1014
S'1196'
p1015
I0
tp1016
a(S'2006'
p1017
S'1417'
p1018
S'1261'
p1019
I1
tp1020
a(S'2006'
p1021
S'1196'
p1022
S'1417'
p1023
I1
tp1024
a(S'2007'
p1025
S'1310'
p1026
S'1197'
p1027
I1
tp1028
a(S'2007'
p1029
S'1403'
p1030
S'1130'
p1031
I0
tp1032
a(S'2007'
p1033
S'1139'
p1034
S'1330'
p1035
I1
tp1036
a(S'2007'
p1037
S'1207'
p1038
S'1125'
p1039
I1
tp1040
a(S'2007'
p1041
S'1231'
p1042
S'1211'
p1043
I1
tp1044
a(S'2007'
p1045
S'1390'
p1046
S'1257'
p1047
I0
tp1048
a(S'2007'
p1049
S'1268'
p1050
S'1172'
p1051
I1
tp1052
a(S'2007'
p1053
S'1277'
p1054
S'1266'
p1055
I1
tp1056
a(S'2007'
p1057
S'1314'
p1058
S'1184'
p1059
I1
tp1060
a(S'2007'
p1061
S'1326'
p1062
S'1148'
p1063
I1
tp1064
a(S'2007'
p1065
S'1338'
p1066
S'1460'
p1067
I1
tp1068
a(S'2007'
p1069
S'1335'
p1070
S'1401'
p1071
I0
tp1072
a(S'2007'
p1073
S'1451'
p1074
S'1417'
p1075
I0
tp1076
a(S'2007'
p1077
S'1433'
p1078
S'1181'
p1079
I1
tp1080
a(S'2007'
p1081
S'1203'
p1082
S'1435'
p1083
I0
tp1084
a(S'2007'
p1085
S'1331'
p1086
S'1450'
p1087
I0
tp1088
a(S'2007'
p1089
S'1140'
p1090
S'1462'
p1091
I0
tp1092
a(S'2007'
p1093
S'1196'
p1094
S'1238'
p1095
I1
tp1096
a(S'2007'
p1097
S'1310'
p1098
S'1242'
p1099
I0
tp1100
a(S'2007'
p1101
S'1246'
p1102
S'1437'
p1103
I1
tp1104
a(S'2007'
p1105
S'1317'
p1106
S'1272'
p1107
I0
tp1108
a(S'2007'
p1109
S'1166'
p1110
S'1305'
p1111
I0
tp1112
a(S'2007'
p1113
S'1275'
p1114
S'1332'
p1115
I0
tp1116
a(S'2007'
p1117
S'1112'
p1118
S'1345'
p1119
I0
tp1120
a(S'2007'
p1121
S'1356'
p1122
S'1221'
p1123
I1
tp1124
a(S'2007'
p1125
S'1397'
p1126
S'1253'
p1127
I1
tp1128
a(S'2007'
p1129
S'1308'
p1130
S'1400'
p1131
I0
tp1132
a(S'2007'
p1133
S'1424'
p1134
S'1210'
p1135
I1
tp1136
a(S'2007'
p1137
S'1425'
p1138
S'1116'
p1139
I1
tp1140
a(S'2007'
p1141
S'1107'
p1142
S'1438'
p1143
I0
tp1144
a(S'2007'
p1145
S'1439'
p1146
S'1228'
p1147
I1
tp1148
a(S'2007'
p1149
S'1457'
p1150
S'1323'
p1151
I1
tp1152
a(S'2007'
p1153
S'1458'
p1154
S'1394'
p1155
I1
tp1156
a(S'2007'
p1157
S'1268'
p1158
S'1139'
p1159
I0
tp1160
a(S'2007'
p1161
S'1207'
p1162
S'1130'
p1163
I1
tp1164
a(S'2007'
p1165
S'1277'
p1166
S'1314'
p1167
I0
tp1168
a(S'2007'
p1169
S'1326'
p1170
S'1462'
p1171
I1
tp1172
a(S'2007'
p1173
S'1433'
p1174
S'1338'
p1175
I0
tp1176
a(S'2007'
p1177
S'1257'
p1178
S'1401'
p1179
I0
tp1180
a(S'2007'
p1181
S'1417'
p1182
S'1231'
p1183
I1
tp1184
a(S'2007'
p1185
S'1435'
p1186
S'1450'
p1187
I1
tp1188
a(S'2007'
p1189
S'1196'
p1190
S'1345'
p1191
I1
tp1192
a(S'2007'
p1193
S'1242'
p1194
S'1246'
p1195
I1
tp1196
a(S'2007'
p1197
S'1272'
p1198
S'1305'
p1199
I1
tp1200
a(S'2007'
p1201
S'1457'
p1202
S'1332'
p1203
I0
tp1204
a(S'2007'
p1205
S'1439'
p1206
S'1356'
p1207
I0
tp1208
a(S'2007'
p1209
S'1438'
p1210
S'1397'
p1211
I0
tp1212
a(S'2007'
p1213
S'1424'
p1214
S'1458'
p1215
I1
tp1216
a(S'2007'
p1217
S'1400'
p1218
S'1425'
p1219
I0
tp1220
a(S'2007'
p1221
S'1356'
p1222
S'1242'
p1223
I0
tp1224
a(S'2007'
p1225
S'1401'
p1226
S'1272'
p1227
I0
tp1228
a(S'2007'
p1229
S'1326'
p1230
S'1397'
p1231
I1
tp1232
a(S'2007'
p1233
S'1417'
p1234
S'1338'
p1235
I1
tp1236
a(S'2007'
p1237
S'1196'
p1238
S'1139'
p1239
I1
tp1240
a(S'2007'
p1241
S'1207'
p1242
S'1435'
p1243
I1
tp1244
a(S'2007'
p1245
S'1314'
p1246
S'1425'
p1247
I1
tp1248
a(S'2007'
p1249
S'1424'
p1250
S'1332'
p1251
I0
tp1252
a(S'2007'
p1253
S'1272'
p1254
S'1326'
p1255
I0
tp1256
a(S'2007'
p1257
S'1242'
p1258
S'1417'
p1259
I0
tp1260
a(S'2007'
p1261
S'1332'
p1262
S'1196'
p1263
I0
tp1264
a(S'2007'
p1265
S'1207'
p1266
S'1314'
p1267
I1
tp1268
a(S'2007'
p1269
S'1196'
p1270
S'1417'
p1271
I1
tp1272
a(S'2007'
p1273
S'1207'
p1274
S'1326'
p1275
I0
tp1276
a(S'2007'
p1277
S'1196'
p1278
S'1326'
p1279
I1
tp1280
a(S'2008'
p1281
S'1291'
p1282
S'1164'
p1283
I1
tp1284
a(S'2008'
p1285
S'1125'
p1286
S'1181'
p1287
I0
tp1288
a(S'2008'
p1289
S'1340'
p1290
S'1242'
p1291
I0
tp1292
a(S'2008'
p1293
S'1243'
p1294
S'1425'
p1295
I1
tp1296
a(S'2008'
p1297
S'1266'
p1298
S'1246'
p1299
I1
tp1300
a(S'2008'
p1301
S'1277'
p1302
S'1396'
p1303
I1
tp1304
a(S'2008'
p1305
S'1206'
p1306
S'1323'
p1307
I0
tp1308
a(S'2008'
p1309
S'1331'
p1310
S'1338'
p1311
I0
tp1312
a(S'2008'
p1313
S'1124'
p1314
S'1345'
p1315
I0
tp1316
a(S'2008'
p1317
S'1390'
p1318
S'1165'
p1319
I1
tp1320
a(S'2008'
p1321
S'1401'
p1322
S'1140'
p1323
I1
tp1324
a(S'2008'
p1325
S'1290'
p1326
S'1417'
p1327
I0
tp1328
a(S'2008'
p1329
S'1245'
p1330
S'1424'
p1331
I0
tp1332
a(S'2008'
p1333
S'1450'
p1334
S'1457'
p1335
I1
tp1336
a(S'2008'
p1337
S'1112'
p1338
S'1452'
p1339
I0
tp1340
a(S'2008'
p1341
S'1458'
p1342
S'1168'
p1343
I1
tp1344
a(S'2008'
p1345
S'1462'
p1346
S'1208'
p1347
I1
tp1348
a(S'2008'
p1349
S'1231'
p1350
S'1116'
p1351
I0
tp1352
a(S'2008'
p1353
S'1139'
p1354
S'1375'
p1355
I1
tp1356
a(S'2008'
p1357
S'1211'
p1358
S'1172'
p1359
I0
tp1360
a(S'2008'
p1361
S'1420'
p1362
S'1207'
p1363
I0
tp1364
a(S'2008'
p1365
S'1257'
p1366
S'1129'
p1367
I1
tp1368
a(S'2008'
p1369
S'1426'
p1370
S'1272'
p1371
I0
tp1372
a(S'2008'
p1373
S'1274'
p1374
S'1388'
p1375
I1
tp1376
a(S'2008'
p1377
S'1332'
p1378
S'1280'
p1379
I0
tp1380
a(S'2008'
p1381
S'1291'
p1382
S'1314'
p1383
I0
tp1384
a(S'2008'
p1385
S'1328'
p1386
S'1386'
p1387
I1
tp1388
a(S'2008'
p1389
S'1163'
p1390
S'1360'
p1391
I0
tp1392
a(S'2008'
p1393
S'1373'
p1394
S'1435'
p1395
I1
tp1396
a(S'2008'
p1397
S'1397'
p1398
S'1110'
p1399
I1
tp1400
a(S'2008'
p1401
S'1122'
p1402
S'1400'
p1403
I0
tp1404
a(S'2008'
p1405
S'1155'
p1406
S'1437'
p1407
I0
tp1408
a(S'2008'
p1409
S'1443'
p1410
S'1179'
p1411
I1
tp1412
a(S'2008'
p1413
S'1242'
p1414
S'1424'
p1415
I1
tp1416
a(S'2008'
p1417
S'1277'
p1418
S'1338'
p1419
I1
tp1420
a(S'2008'
p1421
S'1390'
p1422
S'1266'
p1423
I1
tp1424
a(S'2008'
p1425
S'1417'
p1426
S'1401'
p1427
I1
tp1428
a(S'2008'
p1429
S'1323'
p1430
S'1450'
p1431
I0
tp1432
a(S'2008'
p1433
S'1452'
p1434
S'1181'
p1435
I1
tp1436
a(S'2008'
p1437
S'1458'
p1438
S'1243'
p1439
I1
tp1440
a(S'2008'
p1441
S'1462'
p1442
S'1345'
p1443
I1
tp1444
a(S'2008'
p1445
S'1172'
p1446
S'1207'
p1447
I1
tp1448
a(S'2008'
p1449
S'1328'
p1450
S'1257'
p1451
I0
tp1452
a(S'2008'
p1453
S'1280'
p1454
S'1272'
p1455
I0
tp1456
a(S'2008'
p1457
S'1116'
p1458
S'1314'
p1459
I0
tp1460
a(S'2008'
p1461
S'1139'
p1462
S'1397'
p1463
I0
tp1464
a(S'2008'
p1465
S'1400'
p1466
S'1274'
p1467
I1
tp1468
a(S'2008'
p1469
S'1373'
p1470
S'1437'
p1471
I0
tp1472
a(S'2008'
p1473
S'1443'
p1474
S'1360'
p1475
I1
tp1476
a(S'2008'
p1477
S'1397'
p1478
S'1257'
p1479
I0
tp1480
a(S'2008'
p1481
S'1450'
p1482
S'1314'
p1483
I0
tp1484
a(S'2008'
p1485
S'1417'
p1486
S'1443'
p1487
I1
tp1488
a(S'2008'
p1489
S'1462'
p1490
S'1452'
p1491
I1
tp1492
a(S'2008'
p1493
S'1172'
p1494
S'1458'
p1495
I1
tp1496
a(S'2008'
p1497
S'1242'
p1498
S'1437'
p1499
I1
tp1500
a(S'2008'
p1501
S'1272'
p1502
S'1277'
p1503
I1
tp1504
a(S'2008'
p1505
S'1400'
p1506
S'1390'
p1507
I1
tp1508
a(S'2008'
p1509
S'1257'
p1510
S'1314'
p1511
I0
tp1512
a(S'2008'
p1513
S'1462'
p1514
S'1417'
p1515
I0
tp1516
a(S'2008'
p1517
S'1172'
p1518
S'1242'
p1519
I0
tp1520
a(S'2008'
p1521
S'1272'
p1522
S'1400'
p1523
I1
tp1524
a(S'2008'
p1525
S'1314'
p1526
S'1242'
p1527
I0
tp1528
a(S'2008'
p1529
S'1272'
p1530
S'1417'
p1531
I1
tp1532
a(S'2008'
p1533
S'1242'
p1534
S'1272'
p1535
I1
tp1536
a(S'2009'
p1537
S'1287'
p1538
S'1106'
p1539
I1
tp1540
a(S'2009'
p1541
S'1163'
p1542
S'1151'
p1543
I1
tp1544
a(S'2009'
p1545
S'1181'
p1546
S'1127'
p1547
I1
tp1548
a(S'2009'
p1549
S'1211'
p1550
S'1103'
p1551
I1
tp1552
a(S'2009'
p1553
S'1261'
p1554
S'1139'
p1555
I1
tp1556
a(S'2009'
p1557
S'1268'
p1558
S'1143'
p1559
I1
tp1560
a(S'2009'
p1561
S'1272'
p1562
S'1169'
p1563
I1
tp1564
a(S'2009'
p1565
S'1155'
p1566
S'1276'
p1567
I0
tp1568
a(S'2009'
p1569
S'1347'
p1570
S'1314'
p1571
I0
tp1572
a(S'2009'
p1573
S'1328'
p1574
S'1288'
p1575
I1
tp1576
a(S'2009'
p1577
S'1345'
p1578
S'1320'
p1579
I1
tp1580
a(S'2009'
p1581
S'1278'
p1582
S'1400'
p1583
I0
tp1584
a(S'2009'
p1585
S'1401'
p1586
S'1140'
p1587
I1
tp1588
a(S'2009'
p1589
S'1417'
p1590
S'1433'
p1591
I1
tp1592
a(S'2009'
p1593
S'1437'
p1594
S'1110'
p1595
I1
tp1596
a(S'2009'
p1597
S'1443'
p1598
S'1228'
p1599
I1
tp1600
a(S'2009'
p1601
S'1280'
p1602
S'1449'
p1603
I0
tp1604
a(S'2009'
p1605
S'1112'
p1606
S'1428'
p1607
I1
tp1608
a(S'2009'
p1609
S'1396'
p1610
S'1113'
p1611
I0
tp1612
a(S'2009'
p1613
S'1156'
p1614
S'1448'
p1615
I1
tp1616
a(S'2009'
p1617
S'1173'
p1618
S'1452'
p1619
I1
tp1620
a(S'2009'
p1621
S'1242'
p1622
S'1295'
p1623
I1
tp1624
a(S'2009'
p1625
S'1257'
p1626
S'1287'
p1627
I1
tp1628
a(S'2009'
p1629
S'1266'
p1630
S'1429'
p1631
I1
tp1632
a(S'2009'
p1633
S'1277'
p1634
S'1352'
p1635
I1
tp1636
a(S'2009'
p1637
S'1281'
p1638
S'1165'
p1639
I1
tp1640
a(S'2009'
p1641
S'1329'
p1642
S'1397'
p1643
I1
tp1644
a(S'2009'
p1645
S'1190'
p1646
S'1338'
p1647
I0
tp1648
a(S'2009'
p1649
S'1326'
p1650
S'1373'
p1651
I0
tp1652
a(S'2009'
p1653
S'1372'
p1654
S'1393'
p1655
I0
tp1656
a(S'2009'
p1657
S'1130'
p1658
S'1425'
p1659
I0
tp1660
a(S'2009'
p1661
S'1199'
p1662
S'1458'
p1663
I0
tp1664
a(S'2009'
p1665
S'1462'
p1666
S'1340'
p1667
I1
tp1668
a(S'2009'
p1669
S'1163'
p1670
S'1401'
p1671
I1
tp1672
a(S'2009'
p1673
S'1181'
p1674
S'1400'
p1675
I1
tp1676
a(S'2009'
p1677
S'1211'
p1678
S'1443'
p1679
I1
tp1680
a(S'2009'
p1681
S'1272'
p1682
S'1268'
p1683
I1
tp1684
a(S'2009'
p1685
S'1314'
p1686
S'1261'
p1687
I1
tp1688
a(S'2009'
p1689
S'1328'
p1690
S'1276'
p1691
I1
tp1692
a(S'2009'
p1693
S'1449'
p1694
S'1345'
p1695
I0
tp1696
a(S'2009'
p1697
S'1437'
p1698
S'1417'
p1699
I1
tp1700
a(S'2009'
p1701
S'1112'
p1702
S'1156'
p1703
I1
tp1704
a(S'2009'
p1705
S'1242'
p1706
S'1173'
p1707
I1
tp1708
a(S'2009'
p1709
S'1257'
p1710
S'1373'
p1711
I1
tp1712
a(S'2009'
p1713
S'1277'
p1714
S'1425'
p1715
I1
tp1716
a(S'2009'
p1717
S'1266'
p1718
S'1281'
p1719
I0
tp1720
a(S'2009'
p1721
S'1329'
p1722
S'1338'
p1723
I0
tp1724
a(S'2009'
p1725
S'1393'
p1726
S'1113'
p1727
I1
tp1728
a(S'2009'
p1729
S'1458'
p1730
S'1462'
p1731
I0
tp1732
a(S'2009'
p1733
S'1163'
p1734
S'1345'
p1735
I1
tp1736
a(S'2009'
p1737
S'1281'
p1738
S'1272'
p1739
I1
tp1740
a(S'2009'
p1741
S'1338'
p1742
S'1462'
p1743
I1
tp1744
a(S'2009'
p1745
S'1437'
p1746
S'1181'
p1747
I1
tp1748
a(S'2009'
p1749
S'1112'
p1750
S'1257'
p1751
I0
tp1752
a(S'2009'
p1753
S'1242'
p1754
S'1277'
p1755
I0
tp1756
a(S'2009'
p1757
S'1314'
p1758
S'1211'
p1759
I1
tp1760
a(S'2009'
p1761
S'1393'
p1762
S'1328'
p1763
I0
tp1764
a(S'2009'
p1765
S'1281'
p1766
S'1163'
p1767
I0
tp1768
a(S'2009'
p1769
S'1338'
p1770
S'1437'
p1771
I0
tp1772
a(S'2009'
p1773
S'1277'
p1774
S'1257'
p1775
I1
tp1776
a(S'2009'
p1777
S'1314'
p1778
S'1328'
p1779
I1
tp1780
a(S'2009'
p1781
S'1277'
p1782
S'1163'
p1783
I1
tp1784
a(S'2009'
p1785
S'1437'
p1786
S'1314'
p1787
I0
tp1788
a(S'2009'
p1789
S'1314'
p1790
S'1277'
p1791
I1
tp1792
a(S'2010'
p1793
S'1457'
p1794
S'1115'
p1795
I0
tp1796
a(S'2010'
p1797
S'1124'
p1798
S'1358'
p1799
I1
tp1800
a(S'2010'
p1801
S'1139'
p1802
S'1431'
p1803
I1
tp1804
a(S'2010'
p1805
S'1196'
p1806
S'1140'
p1807
I0
tp1808
a(S'2010'
p1809
S'1242'
p1810
S'1250'
p1811
I1
tp1812
a(S'2010'
p1813
S'1317'
p1814
S'1243'
p1815
I0
tp1816
a(S'2010'
p1817
S'1190'
p1818
S'1246'
p1819
I0
tp1820
a(S'2010'
p1821
S'1293'
p1822
S'1435'
p1823
I1
tp1824
a(S'2010'
p1825
S'1307'
p1826
S'1285'
p1827
I1
tp1828
a(S'2010'
p1829
S'1424'
p1830
S'1320'
p1831
I0
tp1832
a(S'2010'
p1833
S'1207'
p1834
S'1325'
p1835
I0
tp1836
a(S'2010'
p1837
S'1323'
p1838
S'1330'
p1839
I0
tp1840
a(S'2010'
p1841
S'1350'
p1842
S'1388'
p1843
I0
tp1844
a(S'2010'
p1845
S'1361'
p1846
S'1397'
p1847
I0
tp1848
a(S'2010'
p1849
S'1437'
p1850
S'1352'
p1851
I1
tp1852
a(S'2010'
p1853
S'1448'
p1854
S'1400'
p1855
I1
tp1856
a(S'2010'
p1857
S'1266'
p1858
S'1449'
p1859
I0
tp1860
a(S'2010'
p1861
S'1257'
p1862
S'1143'
p1863
I0
tp1864
a(S'2010'
p1865
S'1165'
p1866
S'1396'
p1867
I1
tp1868
a(S'2010'
p1869
S'1115'
p1870
S'1181'
p1871
I0
tp1872
a(S'2010'
p1873
S'1329'
p1874
S'1210'
p1875
I0
tp1876
a(S'2010'
p1877
S'1199'
p1878
S'1211'
p1879
I0
tp1880
a(S'2010'
p1881
S'1222'
p1882
S'1268'
p1883
I0
tp1884
a(S'2010'
p1885
S'1308'
p1886
S'1277'
p1887
I0
tp1888
a(S'2010'
p1889
S'1155'
p1890
S'1281'
p1891
I0
tp1892
a(S'2010'
p1893
S'1326'
p1894
S'1364'
p1895
I1
tp1896
a(S'2010'
p1897
S'1324'
p1898
S'1338'
p1899
I0
tp1900
a(S'2010'
p1901
S'1373'
p1902
S'1345'
p1903
I0
tp1904
a(S'2010'
p1905
S'1436'
p1906
S'1393'
p1907
I0
tp1908
a(S'2010'
p1909
S'1429'
p1910
S'1401'
p1911
I0
tp1912
a(S'2010'
p1913
S'1288'
p1914
S'1452'
p1915
I0
tp1916
a(S'2010'
p1917
S'1458'
p1918
S'1459'
p1919
I1
tp1920
a(S'2010'
p1921
S'1462'
p1922
S'1278'
p1923
I1
tp1924
a(S'2010'
p1925
S'1330'
p1926
S'1124'
p1927
I0
tp1928
a(S'2010'
p1929
S'1139'
p1930
S'1293'
p1931
I1
tp1932
a(S'2010'
p1933
S'1140'
p1934
S'1243'
p1935
I0
tp1936
a(S'2010'
p1937
S'1246'
p1938
S'1448'
p1939
I1
tp1940
a(S'2010'
p1941
S'1320'
p1942
S'1242'
p1943
I1
tp1944
a(S'2010'
p1945
S'1388'
p1946
S'1437'
p1947
I1
tp1948
a(S'2010'
p1949
S'1325'
p1950
S'1397'
p1951
I0
tp1952
a(S'2010'
p1953
S'1307'
p1954
S'1449'
p1955
I0
tp1956
a(S'2010'
p1957
S'1165'
p1958
S'1458'
p1959
I1
tp1960
a(S'2010'
p1961
S'1143'
p1962
S'1181'
p1963
I0
tp1964
a(S'2010'
p1965
S'1277'
p1966
S'1268'
p1967
I1
tp1968
a(S'2010'
p1969
S'1210'
p1970
S'1326'
p1971
I0
tp1972
a(S'2010'
p1973
S'1401'
p1974
S'1345'
p1975
I0
tp1976
a(S'2010'
p1977
S'1393'
p1978
S'1211'
p1979
I1
tp1980
a(S'2010'
p1981
S'1452'
p1982
S'1281'
p1983
I1
tp1984
a(S'2010'
p1985
S'1462'
p1986
S'1338'
p1987
I1
tp1988
a(S'2010'
p1989
S'1393'
p1990
S'1139'
p1991
I0
tp1992
a(S'2010'
p1993
S'1243'
p1994
S'1462'
p1995
I1
tp1996
a(S'2010'
p1997
S'1165'
p1998
S'1246'
p1999
I0
tp2000
a(S'2010'
p2001
S'1452'
p2002
S'1449'
p2003
I1
tp2004
a(S'2010'
p2005
S'1388'
p2006
S'1124'
p2007
I0
tp2008
a(S'2010'
p2009
S'1181'
p2010
S'1345'
p2011
I1
tp2012
a(S'2010'
p2013
S'1277'
p2014
S'1320'
p2015
I1
tp2016
a(S'2010'
p2017
S'1397'
p2018
S'1326'
p2019
I1
tp2020
a(S'2010'
p2021
S'1243'
p2022
S'1139'
p2023
I0
tp2024
a(S'2010'
p2025
S'1246'
p2026
S'1452'
p2027
I0
tp2028
a(S'2010'
p2029
S'1181'
p2030
S'1124'
p2031
I1
tp2032
a(S'2010'
p2033
S'1397'
p2034
S'1277'
p2035
I0
tp2036
a(S'2010'
p2037
S'1277'
p2038
S'1139'
p2039
I0
tp2040
a(S'2010'
p2041
S'1181'
p2042
S'1452'
p2043
I1
tp2044
a(S'2010'
p2045
S'1181'
p2046
S'1139'
p2047
I1
tp2048
a(S'2011'
p2049
S'1412'
p2050
S'1155'
p2051
I0
tp2052
a(S'2011'
p2053
S'1421'
p2054
S'1114'
p2055
I1
tp2056
a(S'2011'
p2057
S'1106'
p2058
S'1427'
p2059
I0
tp2060
a(S'2011'
p2061
S'1433'
p2062
S'1425'
p2063
I1
tp2064
a(S'2011'
p2065
S'1330'
p2066
S'1139'
p2067
I0
tp2068
a(S'2011'
p2069
S'1459'
p2070
S'1140'
p2071
I0
tp2072
a(S'2011'
p2073
S'1153'
p2074
S'1281'
p2075
I1
tp2076
a(S'2011'
p2077
S'1163'
p2078
S'1137'
p2079
I1
tp2080
a(S'2011'
p2081
S'1364'
p2082
S'1196'
p2083
I0
tp2084
a(S'2011'
p2085
S'1211'
p2086
S'1385'
p2087
I1
tp2088
a(S'2011'
p2089
S'1243'
p2090
S'1429'
p2091
I1
tp2092
a(S'2011'
p2093
S'1343'
p2094
S'1246'
p2095
I0
tp2096
a(S'2011'
p2097
S'1287'
p2098
S'1257'
p2099
I1
tp2100
a(S'2011'
p2101
S'1421'
p2102
S'1338'
p2103
I0
tp2104
a(S'2011'
p2105
S'1350'
p2106
S'1435'
p2107
I1
tp2108
a(S'2011'
p2109
S'1294'
p2110
S'1361'
p2111
I0
tp2112
a(S'2011'
p2113
S'1336'
p2114
S'1396'
p2115
I0
tp2116
a(S'2011'
p2117
S'1277'
p2118
S'1417'
p2119
I0
tp2120
a(S'2011'
p2121
S'1155'
p2122
S'1452'
p2123
I0
tp2124
a(S'2011'
p2125
S'1458'
p2126
S'1125'
p2127
I1
tp2128
a(S'2011'
p2129
S'1272'
p2130
S'1112'
p2131
I0
tp2132
a(S'2011'
p2133
S'1214'
p2134
S'1181'
p2135
I0
tp2136
a(S'2011'
p2137
S'1401'
p2138
S'1199'
p2139
I0
tp2140
a(S'2011'
p2141
S'1206'
p2142
S'1437'
p2143
I1
tp2144
a(S'2011'
p2145
S'1424'
p2146
S'1228'
p2147
I0
tp2148
a(S'2011'
p2149
S'1242'
p2150
S'1131'
p2151
I1
tp2152
a(S'2011'
p2153
S'1266'
p2154
S'1462'
p2155
I1
tp2156
a(S'2011'
p2157
S'1397'
p2158
S'1276'
p2159
I0
tp2160
a(S'2011'
p2161
S'1254'
p2162
S'1314'
p2163
I0
tp2164
a(S'2011'
p2165
S'1323'
p2166
S'1103'
p2167
I1
tp2168
a(S'2011'
p2169
S'1427'
p2170
S'1326'
p2171
I0
tp2172
a(S'2011'
p2173
S'1389'
p2174
S'1345'
p2175
I0
tp2176
a(S'2011'
p2177
S'1393'
p2178
S'1232'
p2179
I1
tp2180
a(S'2011'
p2181
S'1324'
p2182
S'1400'
p2183
I0
tp2184
a(S'2011'
p2185
S'1207'
p2186
S'1433'
p2187
I0
tp2188
a(S'2011'
p2189
S'1208'
p2190
S'1449'
p2191
I0
tp2192
a(S'2011'
p2193
S'1139'
p2194
S'1338'
p2195
I1
tp2196
a(S'2011'
p2197
S'1211'
p2198
S'1140'
p2199
I0
tp2200
a(S'2011'
p2201
S'1163'
p2202
S'1153'
p2203
I1
tp2204
a(S'2011'
p2205
S'1196'
p2206
S'1417'
p2207
I1
tp2208
a(S'2011'
p2209
S'1246'
p2210
S'1452'
p2211
I1
tp2212
a(S'2011'
p2213
S'1287'
p2214
S'1350'
p2215
I0
tp2216
a(S'2011'
p2217
S'1396'
p2218
S'1361'
p2219
I0
tp2220
a(S'2011'
p2221
S'1243'
p2222
S'1458'
p2223
I0
tp2224
a(S'2011'
p2225
S'1112'
p2226
S'1400'
p2227
I1
tp2228
a(S'2011'
p2229
S'1276'
p2230
S'1181'
p2231
I0
tp2232
a(S'2011'
p2233
S'1323'
p2234
S'1199'
p2235
I0
tp2236
a(S'2011'
p2237
S'1242'
p2238
S'1228'
p2239
I1
tp2240
a(S'2011'
p2241
S'1266'
p2242
S'1393'
p2243
I1
tp2244
a(S'2011'
p2245
S'1314'
p2246
S'1449'
p2247
I1
tp2248
a(S'2011'
p2249
S'1326'
p2250
S'1206'
p2251
I1
tp2252
a(S'2011'
p2253
S'1433'
p2254
S'1345'
p2255
I1
tp2256
a(S'2011'
p2257
S'1181'
p2258
S'1112'
p2259
I0
tp2260
a(S'2011'
p2261
S'1139'
p2262
S'1458'
p2263
I1
tp2264
a(S'2011'
p2265
S'1163'
p2266
S'1361'
p2267
I1
tp2268
a(S'2011'
p2269
S'1140'
p2270
S'1196'
p2271
I0
tp2272
a(S'2011'
p2273
S'1350'
p2274
S'1242'
p2275
I0
tp2276
a(S'2011'
p2277
S'1246'
p2278
S'1326'
p2279
I1
tp2280
a(S'2011'
p2281
S'1314'
p2282
S'1266'
p2283
I1
tp2284
a(S'2011'
p2285
S'1199'
p2286
S'1433'
p2287
I0
tp2288
a(S'2011'
p2289
S'1139'
p2290
S'1196'
p2291
I1
tp2292
a(S'2011'
p2293
S'1163'
p2294
S'1112'
p2295
I1
tp2296
a(S'2011'
p2297
S'1246'
p2298
S'1314'
p2299
I1
tp2300
a(S'2011'
p2301
S'1433'
p2302
S'1242'
p2303
I1
tp2304
a(S'2011'
p2305
S'1433'
p2306
S'1139'
p2307
I0
tp2308
a(S'2011'
p2309
S'1246'
p2310
S'1163'
p2311
I0
tp2312
a(S'2011'
p2313
S'1139'
p2314
S'1163'
p2315
I0
tp2316
a(S'2012'
p2317
S'1233'
p2318
S'1140'
p2319
I0
tp2320
a(S'2012'
p2321
S'1290'
p2322
S'1443'
p2323
I0
tp2324
a(S'2012'
p2325
S'1378'
p2326
S'1143'
p2327
I1
tp2328
a(S'2012'
p2329
S'1436'
p2330
S'1249'
p2331
I1
tp2332
a(S'2012'
p2333
S'1124'
p2334
S'1355'
p2335
I1
tp2336
a(S'2012'
p2337
S'1424'
p2338
S'1160'
p2339
I0
tp2340
a(S'2012'
p2341
S'1452'
p2342
S'1211'
p2343
I0
tp2344
a(S'2012'
p2345
S'1231'
p2346
S'1308'
p2347
I1
tp2348
a(S'2012'
p2349
S'1163'
p2350
S'1235'
p2351
I0
tp2352
a(S'2012'
p2353
S'1379'
p2354
S'1243'
p2355
I0
tp2356
a(S'2012'
p2357
S'1443'
p2358
S'1246'
p2359
I0
tp2360
a(S'2012'
p2361
S'1172'
p2362
S'1257'
p2363
I0
tp2364
a(S'2012'
p2365
S'1140'
p2366
S'1266'
p2367
I0
tp2368
a(S'2012'
p2369
S'1161'
p2370
S'1293'
p2371
I0
tp2372
a(S'2012'
p2373
S'1253'
p2374
S'1307'
p2375
I0
tp2376
a(S'2012'
p2377
S'1259'
p2378
S'1326'
p2379
I0
tp2380
a(S'2012'
p2381
S'1393'
p2382
S'1421'
p2383
I1
tp2384
a(S'2012'
p2385
S'1455'
p2386
S'1433'
p2387
I0
tp2388
a(S'2012'
p2389
S'1217'
p2390
S'1435'
p2391
I0
tp2392
a(S'2012'
p2393
S'1458'
p2394
S'1285'
p2395
I1
tp2396
a(S'2012'
p2397
S'1153'
p2398
S'1400'
p2399
I1
tp2400
a(S'2012'
p2401
S'1104'
p2402
S'1166'
p2403
I0
tp2404
a(S'2012'
p2405
S'1438'
p2406
S'1196'
p2407
I0
tp2408
a(S'2012'
p2409
S'1382'
p2410
S'1199'
p2411
I0
tp2412
a(S'2012'
p2413
S'1207'
p2414
S'1125'
p2415
I1
tp2416
a(S'2012'
p2417
S'1242'
p2418
S'1178'
p2419
I1
tp2420
a(S'2012'
p2421
S'1250'
p2422
S'1181'
p2423
I1
tp2424
a(S'2012'
p2425
S'1254'
p2426
S'1277'
p2427
I0
tp2428
a(S'2012'
p2429
S'1301'
p2430
S'1361'
p2431
I1
tp2432
a(S'2012'
p2433
S'1313'
p2434
S'1281'
p2435
I1
tp2436
a(S'2012'
p2437
S'1314'
p2438
S'1436'
p2439
I1
tp2440
a(S'2012'
p2441
S'1325'
p2442
S'1276'
p2443
I1
tp2444
a(S'2012'
p2445
S'1388'
p2446
S'1345'
p2447
I0
tp2448
a(S'2012'
p2449
S'1378'
p2450
S'1396'
p2451
I1
tp2452
a(S'2012'
p2453
S'1387'
p2454
S'1272'
p2455
I1
tp2456
a(S'2012'
p2457
S'1323'
p2458
S'1462'
p2459
I0
tp2460
a(S'2012'
p2461
S'1124'
p2462
S'1160'
p2463
I1
tp2464
a(S'2012'
p2465
S'1231'
p2466
S'1433'
p2467
I1
tp2468
a(S'2012'
p2469
S'1246'
p2470
S'1235'
p2471
I1
tp2472
a(S'2012'
p2473
S'1307'
p2474
S'1257'
p2475
I0
tp2476
a(S'2012'
p2477
S'1293'
p2478
S'1266'
p2479
I0
tp2480
a(S'2012'
p2481
S'1326'
p2482
S'1211'
p2483
I1
tp2484
a(S'2012'
p2485
S'1393'
p2486
S'1243'
p2487
I1
tp2488
a(S'2012'
p2489
S'1458'
p2490
S'1435'
p2491
I1
tp2492
a(S'2012'
p2493
S'1153'
p2494
S'1199'
p2495
I1
tp2496
a(S'2012'
p2497
S'1313'
p2498
S'1196'
p2499
I0
tp2500
a(S'2012'
p2501
S'1242'
p2502
S'1345'
p2503
I1
tp2504
a(S'2012'
p2505
S'1277'
p2506
S'1387'
p2507
I1
tp2508
a(S'2012'
p2509
S'1207'
p2510
S'1301'
p2511
I0
tp2512
a(S'2012'
p2513
S'1166'
p2514
S'1314'
p2515
I0
tp2516
a(S'2012'
p2517
S'1378'
p2518
S'1325'
p2519
I0
tp2520
a(S'2012'
p2521
S'1462'
p2522
S'1250'
p2523
I1
tp2524
a(S'2012'
p2525
S'1266'
p2526
S'1196'
p2527
I0
tp2528
a(S'2012'
p2529
S'1257'
p2530
S'1277'
p2531
I1
tp2532
a(S'2012'
p2533
S'1326'
p2534
S'1153'
p2535
I1
tp2536
a(S'2012'
p2537
S'1458'
p2538
S'1393'
p2539
I0
tp2540
a(S'2012'
p2541
S'1462'
p2542
S'1124'
p2543
I0
tp2544
a(S'2012'
p2545
S'1301'
p2546
S'1242'
p2547
I0
tp2548
a(S'2012'
p2549
S'1246'
p2550
S'1231'
p2551
I1
tp2552
a(S'2012'
p2553
S'1325'
p2554
S'1314'
p2555
I0
tp2556
a(S'2012'
p2557
S'1257'
p2558
S'1196'
p2559
I1
tp2560
a(S'2012'
p2561
S'1326'
p2562
S'1393'
p2563
I1
tp2564
a(S'2012'
p2565
S'1314'
p2566
S'1242'
p2567
I0
tp2568
a(S'2012'
p2569
S'1124'
p2570
S'1246'
p2571
I0
tp2572
a(S'2012'
p2573
S'1242'
p2574
S'1326'
p2575
I1
tp2576
a(S'2012'
p2577
S'1246'
p2578
S'1257'
p2579
I1
tp2580
a(S'2012'
p2581
S'1246'
p2582
S'1242'
p2583
I1
tp2584
a(S'2013'
p2585
S'1251'
p2586
S'1299'
p2587
I0
tp2588
a(S'2013'
p2589
S'1388'
p2590
S'1292'
p2591
I1
tp2592
a(S'2013'
p2593
S'1254'
p2594
S'1241'
p2595
I0
tp2596
a(S'2013'
p2597
S'1247'
p2598
S'1129'
p2599
I1
tp2600
a(S'2013'
p2601
S'1125'
p2602
S'1112'
p2603
I0
tp2604
a(S'2013'
p2605
S'1137'
p2606
S'1139'
p2607
I0
tp2608
a(S'2013'
p2609
S'1424'
p2610
S'1143'
p2611
I0
tp2612
a(S'2013'
p2613
S'1281'
p2614
S'1161'
p2615
I0
tp2616
a(S'2013'
p2617
S'1380'
p2618
S'1211'
p2619
I0
tp2620
a(S'2013'
p2621
S'1307'
p2622
S'1217'
p2623
I0
tp2624
a(S'2013'
p2625
S'1299'
p2626
S'1257'
p2627
I0
tp2628
a(S'2013'
p2629
S'1266'
p2630
S'1172'
p2631
I1
tp2632
a(S'2013'
p2633
S'1272'
p2634
S'1388'
p2635
I1
tp2636
a(S'2013'
p2637
S'1276'
p2638
S'1355'
p2639
I1
tp2640
a(S'2013'
p2641
S'1277'
p2642
S'1434'
p2643
I1
tp2644
a(S'2013'
p2645
S'1332'
p2646
S'1329'
p2647
I1
tp2648
a(S'2013'
p2649
S'1387'
p2650
S'1308'
p2651
I1
tp2652
a(S'2013'
p2653
S'1285'
p2654
S'1393'
p2655
I0
tp2656
a(S'2013'
p2657
S'1103'
p2658
S'1433'
p2659
I0
tp2660
a(S'2013'
p2661
S'1338'
p2662
S'1455'
p2663
I0
tp2664
a(S'2013'
p2665
S'1166'
p2666
S'1153'
p2667
I1
tp2668
a(S'2013'
p2669
S'1107'
p2670
S'1181'
p2671
I0
tp2672
a(S'2013'
p2673
S'1207'
p2674
S'1195'
p2675
I0
tp2676
a(S'2013'
p2677
S'1322'
p2678
S'1196'
p2679
I0
tp2680
a(S'2013'
p2681
S'1160'
p2682
S'1228'
p2683
I0
tp2684
a(S'2013'
p2685
S'1241'
p2686
S'1231'
p2687
I0
tp2688
a(S'2013'
p2689
S'1323'
p2690
S'1235'
p2691
I0
tp2692
a(S'2013'
p2693
S'1443'
p2694
S'1242'
p2695
I0
tp2696
a(S'2013'
p2697
S'1243'
p2698
S'1247'
p2699
I0
tp2700
a(S'2013'
p2701
S'1274'
p2702
S'1334'
p2703
I1
tp2704
a(S'2013'
p2705
S'1417'
p2706
S'1278'
p2707
I0
tp2708
a(S'2013'
p2709
S'1279'
p2710
S'1458'
p2711
I1
tp2712
a(S'2013'
p2713
S'1314'
p2714
S'1437'
p2715
I1
tp2716
a(S'2013'
p2717
S'1326'
p2718
S'1233'
p2719
I1
tp2720
a(S'2013'
p2721
S'1328'
p2722
S'1361'
p2723
I0
tp2724
a(S'2013'
p2725
S'1301'
p2726
S'1396'
p2727
I0
tp2728
a(S'2013'
p2729
S'1217'
p2730
S'1112'
p2731
I0
tp2732
a(S'2013'
p2733
S'1257'
p2734
S'1161'
p2735
I1
tp2736
a(S'2013'
p2737
S'1266'
p2738
S'1139'
p2739
I1
tp2740
a(S'2013'
p2741
S'1433'
p2742
S'1276'
p2743
I0
tp2744
a(S'2013'
p2745
S'1272'
p2746
S'1277'
p2747
I0
tp2748
a(S'2013'
p2749
S'1387'
p2750
S'1332'
p2751
I0
tp2752
a(S'2013'
p2753
S'1393'
p2754
S'1143'
p2755
I1
tp2756
a(S'2013'
p2757
S'1455'
p2758
S'1211'
p2759
I1
tp2760
a(S'2013'
p2761
S'1166'
p2762
S'1181'
p2763
I0
tp2764
a(S'2013'
p2765
S'1361'
p2766
S'1195'
p2767
I0
tp2768
a(S'2013'
p2769
S'1196'
p2770
S'1278'
p2771
I1
tp2772
a(S'2013'
p2773
S'1396'
p2774
S'1231'
p2775
I0
tp2776
a(S'2013'
p2777
S'1314'
p2778
S'1242'
p2779
I0
tp2780
a(S'2013'
p2781
S'1247'
p2782
S'1279'
p2783
I1
tp2784
a(S'2013'
p2785
S'1274'
p2786
S'1228'
p2787
I1
tp2788
a(S'2013'
p2789
S'1326'
p2790
S'1235'
p2791
I1
tp2792
a(S'2013'
p2793
S'1266'
p2794
S'1274'
p2795
I1
tp2796
a(S'2013'
p2797
S'1112'
p2798
S'1326'
p2799
I0
tp2800
a(S'2013'
p2801
S'1231'
p2802
S'1393'
p2803
I0
tp2804
a(S'2013'
p2805
S'1247'
p2806
S'1455'
p2807
I0
tp2808
a(S'2013'
p2809
S'1181'
p2810
S'1277'
p2811
I1
tp2812
a(S'2013'
p2813
S'1195'
p2814
S'1196'
p2815
I0
tp2816
a(S'2013'
p2817
S'1332'
p2818
S'1257'
p2819
I0
tp2820
a(S'2013'
p2821
S'1242'
p2822
S'1276'
p2823
I0
tp2824
a(S'2013'
p2825
S'1393'
p2826
S'1266'
p2827
I1
tp2828
a(S'2013'
p2829
S'1326'
p2830
S'1455'
p2831
I0
tp2832
a(S'2013'
p2833
S'1181'
p2834
S'1257'
p2835
I0
tp2836
a(S'2013'
p2837
S'1196'
p2838
S'1276'
p2839
I0
tp2840
a(S'2013'
p2841
S'1257'
p2842
S'1455'
p2843
I1
tp2844
a(S'2013'
p2845
S'1276'
p2846
S'1393'
p2847
I1
tp2848
a(S'2013'
p2849
S'1257'
p2850
S'1276'
p2851
I1
tp2852
a(S'2014'
p2853
S'1291'
p2854
S'1107'
p2855
I0
tp2856
a(S'2014'
p2857
S'1462'
p2858
S'1301'
p2859
I0
tp2860
a(S'2014'
p2861
S'1411'
p2862
S'1142'
p2863
I0
tp2864
a(S'2014'
p2865
S'1397'
p2866
S'1234'
p2867
I1
tp2868
a(S'2014'
p2869
S'1163'
p2870
S'1386'
p2871
I1
tp2872
a(S'2014'
p2873
S'1326'
p2874
S'1173'
p2875
I0
tp2876
a(S'2014'
p2877
S'1196'
p2878
S'1107'
p2879
I1
tp2880
a(S'2014'
p2881
S'1153'
p2882
S'1217'
p2883
I0
tp2884
a(S'2014'
p2885
S'1257'
p2886
S'1264'
p2887
I1
tp2888
a(S'2014'
p2889
S'1276'
p2890
S'1459'
p2891
I1
tp2892
a(S'2014'
p2893
S'1174'
p2894
S'1277'
p2895
I0
tp2896
a(S'2014'
p2897
S'1328'
p2898
S'1295'
p2899
I0
tp2900
a(S'2014'
p2901
S'1140'
p2902
S'1332'
p2903
I0
tp2904
a(S'2014'
p2905
S'1338'
p2906
S'1160'
p2907
I1
tp2908
a(S'2014'
p2909
S'1308'
p2910
S'1361'
p2911
I0
tp2912
a(S'2014'
p2913
S'1301'
p2914
S'1387'
p2915
I0
tp2916
a(S'2014'
p2917
S'1444'
p2918
S'1393'
p2919
I0
tp2920
a(S'2014'
p2921
S'1400'
p2922
S'1113'
p2923
I1
tp2924
a(S'2014'
p2925
S'1454'
p2926
S'1437'
p2927
I0
tp2928
a(S'2014'
p2929
S'1458'
p2930
S'1110'
p2931
I1
tp2932
a(S'2014'
p2933
S'1451'
p2934
S'1112'
p2935
I0
tp2936
a(S'2014'
p2937
S'1124'
p2938
S'1304'
p2939
I1
tp2940
a(S'2014'
p2941
S'1418'
p2942
S'1166'
p2943
I0
tp2944
a(S'2014'
p2945
S'1329'
p2946
S'1211'
p2947
I0
tp2948
a(S'2014'
p2949
S'1300'
p2950
S'1235'
p2951
I0
tp2952
a(S'2014'
p2953
S'1242'
p2954
S'1184'
p2955
I1
tp2956
a(S'2014'
p2957
S'1243'
p2958
S'1246'
p2959
I0
tp2960
a(S'2014'
p2961
S'1272'
p2962
S'1203'
p2963
I1
tp2964
a(S'2014'
p2965
S'1181'
p2966
S'1273'
p2967
I0
tp2968
a(S'2014'
p2969
S'1344'
p2970
S'1314'
p2971
I0
tp2972
a(S'2014'
p2973
S'1433'
p2974
S'1372'
p2975
I0
tp2976
a(S'2014'
p2977
S'1390'
p2978
S'1307'
p2979
I1
tp2980
a(S'2014'
p2981
S'1397'
p2982
S'1269'
p2983
I1
tp2984
a(S'2014'
p2985
S'1417'
p2986
S'1409'
p2987
I1
tp2988
a(S'2014'
p2989
S'1157'
p2990
S'1438'
p2991
I0
tp2992
a(S'2014'
p2993
S'1142'
p2994
S'1455'
p2995
I0
tp2996
a(S'2014'
p2997
S'1163'
p2998
S'1437'
p2999
I1
tp3000
a(S'2014'
p3001
S'1173'
p3002
S'1393'
p3003
I1
tp3004
a(S'2014'
p3005
S'1338'
p3006
S'1196'
p3007
I0
tp3008
a(S'2014'
p3009
S'1387'
p3010
S'1257'
p3011
I0
tp3012
a(S'2014'
p3013
S'1276'
p3014
S'1400'
p3015
I1
tp3016
a(S'2014'
p3017
S'1277'
p3018
S'1217'
p3019
I1
tp3020
a(S'2014'
p3021
S'1295'
p3022
S'1361'
p3023
I0
tp3024
a(S'2014'
p3025
S'1332'
p3026
S'1458'
p3027
I0
tp3028
a(S'2014'
p3029
S'1112'
p3030
S'1211'
p3031
I1
tp3032
a(S'2014'
p3033
S'1166'
p3034
S'1124'
p3035
I0
tp3036
a(S'2014'
p3037
S'1235'
p3038
S'1314'
p3039
I1
tp3040
a(S'2014'
p3041
S'1455'
p3042
S'1246'
p3043
I0
tp3044
a(S'2014'
p3045
S'1390'
p3046
S'1242'
p3047
I1
tp3048
a(S'2014'
p3049
S'1397'
p3050
S'1273'
p3051
I1
tp3052
a(S'2014'
p3053
S'1417'
p3054
S'1372'
p3055
I1
tp3056
a(S'2014'
p3057
S'1438'
p3058
S'1272'
p3059
I1
tp3060
a(S'2014'
p3061
S'1361'
p3062
S'1112'
p3063
I0
tp3064
a(S'2014'
p3065
S'1173'
p3066
S'1390'
p3067
I1
tp3068
a(S'2014'
p3069
S'1417'
p3070
S'1196'
p3071
I0
tp3072
a(S'2014'
p3073
S'1124'
p3074
S'1458'
p3075
I0
tp3076
a(S'2014'
p3077
S'1235'
p3078
S'1163'
p3079
I0
tp3080
a(S'2014'
p3081
S'1246'
p3082
S'1257'
p3083
I1
tp3084
a(S'2014'
p3085
S'1276'
p3086
S'1397'
p3087
I1
tp3088
a(S'2014'
p3089
S'1277'
p3090
S'1438'
p3091
I1
tp3092
a(S'2014'
p3093
S'1196'
p3094
S'1173'
p3095
I1
tp3096
a(S'2014'
p3097
S'1112'
p3098
S'1458'
p3099
I0
tp3100
a(S'2014'
p3101
S'1163'
p3102
S'1277'
p3103
I1
tp3104
a(S'2014'
p3105
S'1246'
p3106
S'1276'
p3107
I1
tp3108
a(S'2014'
p3109
S'1196'
p3110
S'1163'
p3111
I0
tp3112
a(S'2014'
p3113
S'1246'
p3114
S'1458'
p3115
I1
tp3116
a(S'2014'
p3117
S'1246'
p3118
S'1163'
p3119
I0
tp3120
a(S'2015'
p3121
S'1264'
p3122
S'1214'
p3123
I0
tp3124
a(S'2015'
p3125
S'1140'
p3126
S'1279'
p3127
I0
tp3128
a(S'2015'
p3129
S'1173'
p3130
S'1129'
p3131
I1
tp3132
a(S'2015'
p3133
S'1352'
p3134
S'1316'
p3135
I1
tp3136
a(S'2015'
p3137
S'1112'
p3138
S'1411'
p3139
I1
tp3140
a(S'2015'
p3141
S'1116'
p3142
S'1459'
p3143
I1
tp3144
a(S'2015'
p3145
S'1400'
p3146
S'1139'
p3147
I0
tp3148
a(S'2015'
p3149
S'1153'
p3150
S'1345'
p3151
I1
tp3152
a(S'2015'
p3153
S'1207'
p3154
S'1186'
p3155
I1
tp3156
a(S'2015'
p3157
S'1124'
p3158
S'1209'
p3159
I0
tp3160
a(S'2015'
p3161
S'1246'
p3162
S'1214'
p3163
I1
tp3164
a(S'2015'
p3165
S'1261'
p3166
S'1301'
p3167
I0
tp3168
a(S'2015'
p3169
S'1217'
p3170
S'1314'
p3171
I0
tp3172
a(S'2015'
p3173
S'1323'
p3174
S'1318'
p3175
I1
tp3176
a(S'2015'
p3177
S'1433'
p3178
S'1326'
p3179
I0
tp3180
a(S'2015'
p3181
S'1412'
p3182
S'1235'
p3183
I1
tp3184
a(S'2015'
p3185
S'1374'
p3186
S'1417'
p3187
I0
tp3188
a(S'2015'
p3189
S'1372'
p3190
S'1428'
p3191
I0
tp3192
a(S'2015'
p3193
S'1437'
p3194
S'1248'
p3195
I1
tp3196
a(S'2015'
p3197
S'1279'
p3198
S'1462'
p3199
I0
tp3200
a(S'2015'
p3201
S'1344'
p3202
S'1173'
p3203
I0
tp3204
a(S'2015'
p3205
S'1352'
p3206
S'1181'
p3207
I0
tp3208
a(S'2015'
p3209
S'1295'
p3210
S'1211'
p3211
I0
tp3212
a(S'2015'
p3213
S'1172'
p3214
S'1234'
p3215
I0
tp3216
a(S'2015'
p3217
S'1242'
p3218
S'1308'
p3219
I1
tp3220
a(S'2015'
p3221
S'1414'
p3222
S'1257'
p3223
I0
tp3224
a(S'2015'
p3225
S'1434'
p3226
S'1268'
p3227
I0
tp3228
a(S'2015'
p3229
S'1277'
p3230
S'1208'
p3231
I1
tp3232
a(S'2015'
p3233
S'1320'
p3234
S'1461'
p3235
I1
tp3236
a(S'2015'
p3237
S'1328'
p3238
S'1107'
p3239
I1
tp3240
a(S'2015'
p3241
S'1329'
p3242
S'1332'
p3243
I0
tp3244
a(S'2015'
p3245
S'1385'
p3246
S'1361'
p3247
I0
tp3248
a(S'2015'
p3249
S'1438'
p3250
S'1125'
p3251
I1
tp3252
a(S'2015'
p3253
S'1452'
p3254
S'1138'
p3255
I1
tp3256
a(S'2015'
p3257
S'1455'
p3258
S'1231'
p3259
I1
tp3260
a(S'2015'
p3261
S'1157'
p3262
S'1458'
p3263
I0
tp3264
a(S'2015'
p3265
S'1112'
p3266
S'1326'
p3267
I1
tp3268
a(S'2015'
p3269
S'1246'
p3270
S'1153'
p3271
I1
tp3272
a(S'2015'
p3273
S'1301'
p3274
S'1437'
p3275
I1
tp3276
a(S'2015'
p3277
S'1116'
p3278
S'1314'
p3279
I0
tp3280
a(S'2015'
p3281
S'1323'
p3282
S'1139'
p3283
I1
tp3284
a(S'2015'
p3285
S'1412'
p3286
S'1417'
p3287
I0
tp3288
a(S'2015'
p3289
S'1428'
p3290
S'1207'
p3291
I1
tp3292
a(S'2015'
p3293
S'1462'
p3294
S'1209'
p3295
I1
tp3296
a(S'2015'
p3297
S'1181'
p3298
S'1361'
p3299
I1
tp3300
a(S'2015'
p3301
S'1234'
p3302
S'1211'
p3303
I0
tp3304
a(S'2015'
p3305
S'1257'
p3306
S'1320'
p3307
I1
tp3308
a(S'2015'
p3309
S'1277'
p3310
S'1438'
p3311
I1
tp3312
a(S'2015'
p3313
S'1328'
p3314
S'1173'
p3315
I1
tp3316
a(S'2015'
p3317
S'1452'
p3318
S'1268'
p3319
I1
tp3320
a(S'2015'
p3321
S'1455'
p3322
S'1242'
p3323
I1
tp3324
a(S'2015'
p3325
S'1458'
p3326
S'1332'
p3327
I1
tp3328
a(S'2015'
p3329
S'1112'
p3330
S'1462'
p3331
I1
tp3332
a(S'2015'
p3333
S'1246'
p3334
S'1452'
p3335
I1
tp3336
a(S'2015'
p3337
S'1323'
p3338
S'1455'
p3339
I1
tp3340
a(S'2015'
p3341
S'1458'
p3342
S'1314'
p3343
I1
tp3344
a(S'2015'
p3345
S'1181'
p3346
S'1428'
p3347
I1
tp3348
a(S'2015'
p3349
S'1211'
p3350
S'1417'
p3351
I1
tp3352
a(S'2015'
p3353
S'1301'
p3354
S'1257'
p3355
I0
tp3356
a(S'2015'
p3357
S'1277'
p3358
S'1328'
p3359
I1
tp3360
a(S'2015'
p3361
S'1323'
p3362
S'1246'
p3363
I0
tp3364
a(S'2015'
p3365
S'1112'
p3366
S'1458'
p3367
I0
tp3368
a(S'2015'
p3369
S'1181'
p3370
S'1211'
p3371
I1
tp3372
a(S'2015'
p3373
S'1257'
p3374
S'1277'
p3375
I0
tp3376
a(S'2015'
p3377
S'1277'
p3378
S'1181'
p3379
I0
tp3380
a(S'2015'
p3381
S'1246'
p3382
S'1458'
p3383
I0
tp3384
a(S'2015'
p3385
S'1181'
p3386
S'1458'
p3387
I1
tp3388
a(S'2016'
p3389
S'1192'
p3390
S'1195'
p3391
I0
tp3392
a(S'2016'
p3393
S'1455'
p3394
S'1435'
p3395
I1
tp3396
a(S'2016'
p3397
S'1221'
p3398
S'1380'
p3399
I1
tp3400
a(S'2016'
p3401
S'1276'
p3402
S'1409'
p3403
I1
tp3404
a(S'2016'
p3405
S'1114'
p3406
S'1345'
p3407
I1
tp3408
a(S'2016'
p3409
S'1139'
p3410
S'1403'
p3411
I1
tp3412
a(S'2016'
p3413
S'1160'
p3414
S'1163'
p3415
I0
tp3416
a(S'2016'
p3417
S'1423'
p3418
S'1181'
p3419
I0
tp3420
a(S'2016'
p3421
S'1211'
p3422
S'1371'
p3423
I1
tp3424
a(S'2016'
p3425
S'1231'
p3426
S'1151'
p3427
I1
tp3428
a(S'2016'
p3429
S'1233'
p3430
S'1235'
p3431
I0
tp3432
a(S'2016'
p3433
S'1122'
p3434
S'1242'
p3435
I0
tp3436
a(S'2016'
p3437
S'1246'
p3438
S'1392'
p3439
I1
tp3440
a(S'2016'
p3441
S'1138'
p3442
S'1274'
p3443
I0
tp3444
a(S'2016'
p3445
S'1195'
p3446
S'1314'
p3447
I0
tp3448
a(S'2016'
p3449
S'1344'
p3450
S'1425'
p3451
I1
tp3452
a(S'2016'
p3453
S'1201'
p3454
S'1428'
p3455
I0
tp3456
a(S'2016'
p3457
S'1214'
p3458
S'1438'
p3459
I0
tp3460
a(S'2016'
p3461
S'1112'
p3462
S'1455'
p3463
I0
tp3464
a(S'2016'
p3465
S'1124'
p3466
S'1463'
p3467
I0
tp3468
a(S'2016'
p3469
S'1218'
p3470
S'1143'
p3471
I1
tp3472
a(S'2016'
p3473
S'1396'
p3474
S'1234'
p3475
I0
tp3476
a(S'2016'
p3477
S'1268'
p3478
S'1355'
p3479
I1
tp3480
a(S'2016'
p3481
S'1292'
p3482
S'1277'
p3483
I1
tp3484
a(S'2016'
p3485
S'1320'
p3486
S'1400'
p3487
I1
tp3488
a(S'2016'
p3489
S'1276'
p3490
S'1323'
p3491
I0
tp3492
a(S'2016'
p3493
S'1167'
p3494
S'1328'
p3495
I0
tp3496
a(S'2016'
p3497
S'1221'
p3498
S'1332'
p3499
I0
tp3500
a(S'2016'
p3501
S'1372'
p3502
S'1452'
p3503
I1
tp3504
a(S'2016'
p3505
S'1153'
p3506
S'1386'
p3507
I0
tp3508
a(S'2016'
p3509
S'1173'
p3510
S'1393'
p3511
I0
tp3512
a(S'2016'
p3513
S'1453'
p3514
S'1401'
p3515
I0
tp3516
a(S'2016'
p3517
S'1433'
p3518
S'1333'
p3519
I1
tp3520
a(S'2016'
p3521
S'1421'
p3522
S'1437'
p3523
I0
tp3524
a(S'2016'
p3525
S'1338'
p3526
S'1458'
p3527
I0
tp3528
a(S'2016'
p3529
S'1451'
p3530
S'1462'
p3531
I0
tp3532
a(S'2016'
p3533
S'1181'
p3534
S'1463'
p3535
I1
tp3536
a(S'2016'
p3537
S'1211'
p3538
S'1428'
p3539
I1
tp3540
a(S'2016'
p3541
S'1246'
p3542
S'1231'
p3543
I0
tp3544
a(S'2016'
p3545
S'1114'
p3546
S'1235'
p3547
I0
tp3548
a(S'2016'
p3549
S'1163'
p3550
S'1242'
p3551
I0
tp3552
a(S'2016'
p3553
S'1455'
p3554
S'1274'
p3555
I0
tp3556
a(S'2016'
p3557
S'1314'
p3558
S'1344'
p3559
I1
tp3560
a(S'2016'
p3561
S'1139'
p3562
S'1438'
p3563
I0
tp3564
a(S'2016'
p3565
S'1268'
p3566
S'1218'
p3567
I1
tp3568
a(S'2016'
p3569
S'1323'
p3570
S'1372'
p3571
I1
tp3572
a(S'2016'
p3573
S'1433'
p3574
S'1328'
p3575
I0
tp3576
a(S'2016'
p3577
S'1332'
p3578
S'1386'
p3579
I1
tp3580
a(S'2016'
p3581
S'1393'
p3582
S'1292'
p3583
I1
tp3584
a(S'2016'
p3585
S'1320'
p3586
S'1401'
p3587
I0
tp3588
a(S'2016'
p3589
S'1234'
p3590
S'1437'
p3591
I0
tp3592
a(S'2016'
p3593
S'1458'
p3594
S'1462'
p3595
I1
tp3596
a(S'2016'
p3597
S'1268'
p3598
S'1242'
p3599
I0
tp3600
a(S'2016'
p3601
S'1328'
p3602
S'1401'
p3603
I1
tp3604
a(S'2016'
p3605
S'1181'
p3606
S'1332'
p3607
I0
tp3608
a(S'2016'
p3609
S'1274'
p3610
S'1437'
p3611
I0
tp3612
a(S'2016'
p3613
S'1231'
p3614
S'1314'
p3615
I0
tp3616
a(S'2016'
p3617
S'1458'
p3618
S'1323'
p3619
I0
tp3620
a(S'2016'
p3621
S'1211'
p3622
S'1393'
p3623
I0
tp3624
a(S'2016'
p3625
S'1438'
p3626
S'1235'
p3627
I1
tp3628
a(S'2016'
p3629
S'1328'
p3630
S'1332'
p3631
I1
tp3632
a(S'2016'
p3633
S'1437'
p3634
S'1242'
p3635
I1
tp3636
a(S'2016'
p3637
S'1314'
p3638
S'1323'
p3639
I1
tp3640
a(S'2016'
p3641
S'1438'
p3642
S'1393'
p3643
I0
tp3644
a(S'2016'
p3645
S'1314'
p3646
S'1393'
p3647
I1
tp3648
a(S'2016'
p3649
S'1437'
p3650
S'1328'
p3651
I1
tp3652
a(S'2016'
p3653
S'1437'
p3654
S'1314'
p3655
I1
tp3656
a.